target datalayout = "e-m:e-p270:32:32-p271:32:32-p272:64:64-i64:64-i128:128-f80:128-n8:16:32:64-S128"
target triple = "x86_64-pc-linux-gnu"

%struct.GISTInsertStack = type { i32, i32, ptr, i64, i8, i16, ptr }
%struct.GISTInsertState = type { ptr, ptr, i64, i8, ptr }
%struct.GISTPageSplitInfo = type { i32, ptr }
%union.ListCell = type { ptr }
%struct.List = type { i32, i32, i32, ptr, [0 x %union.ListCell] }

; Function Attrs: inlinehint nounwind uwtable
define internal ptr @list_nth_cell(ptr noundef %0, i32 noundef %1) #2 {
  %3 = alloca ptr, align 8
  %4 = alloca i32, align 4
  store ptr %0, ptr %3, align 8
  store i32 %1, ptr %4, align 4
  %5 = load ptr, ptr %3, align 8
  %6 = getelementptr inbounds nuw %struct.List, ptr %5, i32 0, i32 3
  %7 = load ptr, ptr %6, align 8
  %8 = load i32, ptr %4, align 4
  %9 = sext i32 %8 to i64
  %10 = getelementptr inbounds %union.ListCell, ptr %7, i64 %9
  ret ptr %10
}

; Function Attrs: inlinehint nounwind uwtable
define internal ptr @list_nth(ptr noundef %0, i32 noundef %1) #2 {
  %3 = alloca ptr, align 8
  %4 = alloca i32, align 4
  store ptr %0, ptr %3, align 8
  store i32 %1, ptr %4, align 4
  %5 = load ptr, ptr %3, align 8
  %6 = load i32, ptr %4, align 4
  %7 = call ptr @list_nth_cell(ptr noundef %5, i32 noundef %6)
  %8 = load ptr, ptr %7, align 8
  ret ptr %8
}

; Function Attrs: inlinehint nounwind uwtable
define internal i32 @list_length(ptr noundef %0) #2 {
  %2 = alloca ptr, align 8
  store ptr %0, ptr %2, align 8
  %3 = load ptr, ptr %2, align 8
  %4 = icmp ne ptr %3, null
  br i1 %4, label %5, label %9

5:                                                ; preds = %1
  %6 = load ptr, ptr %2, align 8
  %7 = getelementptr inbounds nuw %struct.List, ptr %6, i32 0, i32 1
  %8 = load i32, ptr %7, align 4
  br label %10

9:                                                ; preds = %1
  br label %10

10:                                               ; preds = %9, %5
  %11 = phi i32 [ %8, %5 ], [ 0, %9 ]
  ret i32 %11
}

; Function Attrs: nounwind uwtable
define internal void @gistfinishsplit(ptr noundef %0, ptr noundef %1, ptr noundef %2, ptr noundef %3, i1 noundef zeroext %4) #0 {
  %6 = alloca ptr, align 8
  %7 = alloca ptr, align 8
  %8 = alloca ptr, align 8
  %9 = alloca ptr, align 8
  %10 = alloca i8, align 1
  %11 = alloca ptr, align 8
  %12 = alloca ptr, align 8
  %13 = alloca [2 x ptr], align 16
  %14 = alloca i32, align 4
  store ptr %0, ptr %6, align 8
  store ptr %1, ptr %7, align 8
  store ptr %2, ptr %8, align 8
  store ptr %3, ptr %9, align 8
  %15 = zext i1 %4 to i8
  store i8 %15, ptr %10, align 1
  call void @llvm.lifetime.start.p0(i64 8, ptr %11) #7
  call void @llvm.lifetime.start.p0(i64 8, ptr %12) #7
  call void @llvm.lifetime.start.p0(i64 16, ptr %13) #7
  %16 = load ptr, ptr %7, align 8
  %17 = getelementptr inbounds nuw %struct.GISTInsertStack, ptr %16, i32 0, i32 6
  %18 = load ptr, ptr %17, align 8
  %19 = getelementptr inbounds nuw %struct.GISTInsertStack, ptr %18, i32 0, i32 1
  %20 = load i32, ptr %19, align 4
  call void @LockBuffer(i32 noundef %20, i32 noundef 2)
  call void @llvm.lifetime.start.p0(i64 4, ptr %14) #7
  %21 = load ptr, ptr %9, align 8
  %22 = call i32 @list_length(ptr noundef %21)
  %23 = sub i32 %22, 1
  store i32 %23, ptr %14, align 4
  br label %24

24:                                               ; preds = %62, %5
  %25 = load i32, ptr %14, align 4
  %26 = icmp sgt i32 %25, 1
  br i1 %26, label %28, label %27

27:                                               ; preds = %24
  call void @llvm.lifetime.end.p0(i64 4, ptr %14) #7
  br label %65

28:                                               ; preds = %24
  %29 = load ptr, ptr %9, align 8
  %30 = load i32, ptr %14, align 4
  %31 = call ptr @list_nth(ptr noundef %29, i32 noundef %30)
  store ptr %31, ptr %11, align 8
  %32 = load ptr, ptr %9, align 8
  %33 = load i32, ptr %14, align 4
  %34 = sub i32 %33, 1
  %35 = call ptr @list_nth(ptr noundef %32, i32 noundef %34)
  store ptr %35, ptr %12, align 8
  %36 = load ptr, ptr %6, align 8
  %37 = getelementptr inbounds nuw %struct.GISTInsertState, ptr %36, i32 0, i32 0
  %38 = load ptr, ptr %37, align 8
  %39 = load ptr, ptr %7, align 8
  %40 = load ptr, ptr %6, align 8
  %41 = getelementptr inbounds nuw %struct.GISTInsertState, ptr %40, i32 0, i32 3
  %42 = load i8, ptr %41, align 8, !range !7, !noundef !8
  %43 = trunc i8 %42 to i1
  call void @gistFindCorrectParent(ptr noundef %38, ptr noundef %39, i1 noundef zeroext %43)
  %44 = load ptr, ptr %6, align 8
  %45 = load ptr, ptr %7, align 8
  %46 = getelementptr inbounds nuw %struct.GISTInsertStack, ptr %45, i32 0, i32 6
  %47 = load ptr, ptr %46, align 8
  %48 = load ptr, ptr %8, align 8
  %49 = load ptr, ptr %11, align 8
  %50 = getelementptr inbounds nuw %struct.GISTPageSplitInfo, ptr %49, i32 0, i32 1
  %51 = load ptr, ptr %12, align 8
  %52 = getelementptr inbounds nuw %struct.GISTPageSplitInfo, ptr %51, i32 0, i32 0
  %53 = load i32, ptr %52, align 8
  %54 = load ptr, ptr %11, align 8
  %55 = getelementptr inbounds nuw %struct.GISTPageSplitInfo, ptr %54, i32 0, i32 0
  %56 = load i32, ptr %55, align 8
  %57 = call zeroext i1 @gistinserttuples(ptr noundef %44, ptr noundef %47, ptr noundef %48, ptr noundef %50, i32 noundef 1, i16 noundef zeroext 0, i32 noundef %53, i32 noundef %56, i1 noundef zeroext false, i1 noundef zeroext false)
  br i1 %57, label %58, label %61

58:                                               ; preds = %28
  %59 = load ptr, ptr %7, align 8
  %60 = getelementptr inbounds nuw %struct.GISTInsertStack, ptr %59, i32 0, i32 5
  store i16 0, ptr %60, align 2
  br label %61

61:                                               ; preds = %58, %28
  br label %62

62:                                               ; preds = %61
  %63 = load i32, ptr %14, align 4
  %64 = add i32 %63, -1
  store i32 %64, ptr %14, align 4
  br label %24, !llvm.loop !27

65:                                               ; preds = %27
  %66 = load ptr, ptr %9, align 8
  %67 = call ptr @list_nth_cell(ptr noundef %66, i32 noundef 1)
  %68 = load ptr, ptr %67, align 8
  store ptr %68, ptr %11, align 8
  %69 = load ptr, ptr %9, align 8
  %70 = call ptr @list_nth_cell(ptr noundef %69, i32 noundef 0)
  %71 = load ptr, ptr %70, align 8
  store ptr %71, ptr %12, align 8
  %72 = load ptr, ptr %12, align 8
  %73 = getelementptr inbounds nuw %struct.GISTPageSplitInfo, ptr %72, i32 0, i32 1
  %74 = load ptr, ptr %73, align 8
  %75 = getelementptr inbounds [2 x ptr], ptr %13, i64 0, i64 0
  store ptr %74, ptr %75, align 16
  %76 = load ptr, ptr %11, align 8
  %77 = getelementptr inbounds nuw %struct.GISTPageSplitInfo, ptr %76, i32 0, i32 1
  %78 = load ptr, ptr %77, align 8
  %79 = getelementptr inbounds [2 x ptr], ptr %13, i64 0, i64 1
  store ptr %78, ptr %79, align 8
  %80 = load ptr, ptr %6, align 8
  %81 = getelementptr inbounds nuw %struct.GISTInsertState, ptr %80, i32 0, i32 0
  %82 = load ptr, ptr %81, align 8
  %83 = load ptr, ptr %7, align 8
  %84 = load ptr, ptr %6, align 8
  %85 = getelementptr inbounds nuw %struct.GISTInsertState, ptr %84, i32 0, i32 3
  %86 = load i8, ptr %85, align 8, !range !7, !noundef !8
  %87 = trunc i8 %86 to i1
  call void @gistFindCorrectParent(ptr noundef %82, ptr noundef %83, i1 noundef zeroext %87)
  %88 = load ptr, ptr %6, align 8
  %89 = load ptr, ptr %7, align 8
  %90 = getelementptr inbounds nuw %struct.GISTInsertStack, ptr %89, i32 0, i32 6
  %91 = load ptr, ptr %90, align 8
  %92 = load ptr, ptr %8, align 8
  %93 = getelementptr inbounds [2 x ptr], ptr %13, i64 0, i64 0
  %94 = load ptr, ptr %7, align 8
  %95 = getelementptr inbounds nuw %struct.GISTInsertStack, ptr %94, i32 0, i32 5
  %96 = load i16, ptr %95, align 2
  %97 = load ptr, ptr %12, align 8
  %98 = getelementptr inbounds nuw %struct.GISTPageSplitInfo, ptr %97, i32 0, i32 0
  %99 = load i32, ptr %98, align 8
  %100 = load ptr, ptr %11, align 8
  %101 = getelementptr inbounds nuw %struct.GISTPageSplitInfo, ptr %100, i32 0, i32 0
  %102 = load i32, ptr %101, align 8
  %103 = load i8, ptr %10, align 1, !range !7, !noundef !8
  %104 = trunc i8 %103 to i1
  %105 = call zeroext i1 @gistinserttuples(ptr noundef %88, ptr noundef %91, ptr noundef %92, ptr noundef %93, i32 noundef 2, i16 noundef zeroext %96, i32 noundef %99, i32 noundef %102, i1 noundef zeroext true, i1 noundef zeroext %104)
  %106 = load ptr, ptr %7, align 8
  %107 = getelementptr inbounds nuw %struct.GISTInsertStack, ptr %106, i32 0, i32 5
  store i16 0, ptr %107, align 2
  %108 = load ptr, ptr %7, align 8
  %109 = getelementptr inbounds nuw %struct.GISTInsertStack, ptr %108, i32 0, i32 4
  store i8 1, ptr %109, align 8
  call void @llvm.lifetime.end.p0(i64 16, ptr %13) #7
  call void @llvm.lifetime.end.p0(i64 8, ptr %12) #7
  call void @llvm.lifetime.end.p0(i64 8, ptr %11) #7
  ret void
}