; Function Attrs: nounwind uwtable
define internal fastcc void @gistfinishsplit(ptr noundef nonnull readonly captures(none) %0, ptr noundef captures(none) %1, ptr noundef %2, ptr noundef readonly captures(address_is_null) %3, i1 noundef zeroext %4) unnamed_addr #0 {
  %6 = alloca [2 x ptr], align 16
  call void @llvm.lifetime.start.p0(i64 16, ptr nonnull %6) #8
  %7 = getelementptr inbounds nuw i8, ptr %1, i64 32
  %8 = load ptr, ptr %7, align 8
  %9 = getelementptr inbounds nuw i8, ptr %8, i64 4
  %10 = load i32, ptr %9, align 4
  tail call void @LockBuffer(i32 noundef %10, i32 noundef 2) #8
  %.not.i = icmp eq ptr %3, null
  br i1 %.not.i, label %._crit_edge, label %list_length.exit

list_length.exit:                                 ; preds = %5
  %11 = getelementptr inbounds nuw i8, ptr %3, i64 4
  %12 = load i32, ptr %11, align 4
  %.036 = add i32 %12, -1
  %13 = icmp sgt i32 %.036, 1
  br i1 %13, label %.lr.ph, label %._crit_edge

.lr.ph:                                           ; preds = %list_length.exit
  %14 = getelementptr i8, ptr %3, i64 16
  %15 = getelementptr inbounds nuw i8, ptr %1, i64 26
  %16 = zext nneg i32 %.036 to i64
  %17 = zext i32 %12 to i64
  br label %35

._crit_edge:                                      ; preds = %49, %5, %list_length.exit
  %18 = getelementptr i8, ptr %3, i64 16
  %.val = load ptr, ptr %18, align 8
  %19 = getelementptr inbounds nuw i8, ptr %.val, i64 8
  %20 = load ptr, ptr %19, align 8
  %21 = load ptr, ptr %.val, align 8
  %22 = getelementptr inbounds nuw i8, ptr %21, i64 8
  %23 = load ptr, ptr %22, align 8
  store ptr %23, ptr %6, align 16
  %24 = getelementptr inbounds nuw i8, ptr %20, i64 8
  %25 = load ptr, ptr %24, align 8
  %26 = getelementptr inbounds nuw i8, ptr %6, i64 8
  store ptr %25, ptr %26, align 8
  %27 = load ptr, ptr %0, align 8
  tail call fastcc void @gistFindCorrectParent(ptr noundef %27, ptr noundef nonnull %1)
  %28 = load ptr, ptr %7, align 8
  %29 = getelementptr inbounds nuw i8, ptr %1, i64 26
  %30 = load i16, ptr %29, align 2
  %31 = load i32, ptr %21, align 8
  %32 = load i32, ptr %20, align 8
  %33 = call fastcc zeroext i1 @gistinserttuples(ptr noundef %0, ptr noundef %28, ptr noundef %2, ptr noundef nonnull %6, i32 noundef 2, i16 noundef zeroext %30, i32 noundef %31, i32 noundef %32, i1 noundef zeroext true, i1 noundef zeroext %4)
  store i16 0, ptr %29, align 2
  %34 = getelementptr inbounds nuw i8, ptr %1, i64 24
  store i8 1, ptr %34, align 8
  call void @llvm.lifetime.end.p0(i64 16, ptr nonnull %6) #8
  ret void

35:                                               ; preds = %.lr.ph, %49
  %indvars.iv39 = phi i64 [ %17, %.lr.ph ], [ %indvars.iv.next40, %49 ]
  %indvars.iv = phi i64 [ %16, %.lr.ph ], [ %indvars.iv.next, %49 ]
  %.val34 = load ptr, ptr %14, align 8
  %36 = getelementptr inbounds nuw %union.ListCell, ptr %.val34, i64 %indvars.iv
  %37 = load ptr, ptr %36, align 8
  %38 = add i64 %indvars.iv39, 4294967294
  %39 = and i64 %38, 4294967295
  %40 = getelementptr inbounds nuw %union.ListCell, ptr %.val34, i64 %39
  %41 = load ptr, ptr %40, align 8
  %42 = load ptr, ptr %0, align 8
  tail call fastcc void @gistFindCorrectParent(ptr noundef %42, ptr noundef nonnull %1)
  %43 = load ptr, ptr %7, align 8
  %44 = getelementptr inbounds nuw i8, ptr %37, i64 8
  %45 = load i32, ptr %41, align 8
  %46 = load i32, ptr %37, align 8
  %47 = tail call fastcc zeroext i1 @gistinserttuples(ptr noundef %0, ptr noundef %43, ptr noundef %2, ptr noundef nonnull %44, i32 noundef 1, i16 noundef zeroext 0, i32 noundef %45, i32 noundef %46, i1 noundef zeroext false, i1 noundef zeroext false)
  br i1 %47, label %48, label %49

48:                                               ; preds = %35
  store i16 0, ptr %15, align 2
  br label %49

49:                                               ; preds = %35, %48
  %indvars.iv.next = add nsw i64 %indvars.iv, -1
  %50 = icmp sgt i64 %indvars.iv, 2
  %indvars.iv.next40 = add nsw i64 %indvars.iv39, -1
  br i1 %50, label %35, label %._crit_edge, !llvm.loop !11
}